target datalayout = "e-m:e-p270:32:32-p271:32:32-p272:64:64-i64:64-i128:128-f80:128-n8:16:32:64-S128"
target triple = "x86_64-pc-linux-gnu"

%"class.cv::Mat_" = type { %"class.cv::Mat" }
%"class.cv::Mat" = type { i32, i32, i32, i32, ptr, ptr, ptr, ptr, ptr, ptr, %"struct.cv::MatSize", %"struct.cv::MatStep" }
%"struct.cv::MatSize" = type { ptr }
%"struct.cv::MatStep" = type { ptr, [2 x i64] }
%"class.cv::TrackingFunctionPF::TrackingHistogram" = type { %"class.cv::Mat_", %"class.cv::Mat_" }
%"class.cv::TrackingFunctionPF" = type { %"class.cv::PFSolver::Function", %"class.cv::Mat", i32, i32, i32, %"class.cv::TrackingFunctionPF::TrackingHistogram" }
%"class.cv::PFSolver::Function" = type { %"class.cv::MinProblemSolver::Function" }
%"class.cv::MinProblemSolver::Function" = type { ptr }

@_ZN2cv18TrackingFunctionPF17TrackingHistogramC1ERKNS_3MatEiii = hidden unnamed_addr alias void (ptr, ptr, i32, i32, i32), ptr @_ZN2cv18TrackingFunctionPF17TrackingHistogramC2ERKNS_3MatEiii

; Function Attrs: inlinehint mustprogress nounwind uwtable
define linkonce_odr hidden void @_ZN2cv18TrackingFunctionPF17TrackingHistogramD2Ev(ptr noundef nonnull align 8 dereferenceable(192) %0) unnamed_addr #6 comdat align 2 {
  %2 = alloca ptr, align 8
  store ptr %0, ptr %2, align 8, !tbaa !106
  %3 = load ptr, ptr %2, align 8
  %4 = getelementptr inbounds nuw %"class.cv::TrackingFunctionPF::TrackingHistogram", ptr %3, i32 0, i32 1
  call void @_ZN2cv3MatD2Ev(ptr noundef nonnull align 8 dereferenceable(96) %4) #3
  %5 = getelementptr inbounds nuw %"class.cv::TrackingFunctionPF::TrackingHistogram", ptr %3, i32 0, i32 0
  call void @_ZN2cv3MatD2Ev(ptr noundef nonnull align 8 dereferenceable(96) %5) #3
  ret void
}

; Function Attrs: mustprogress uwtable
define hidden void @_ZN2cv18TrackingFunctionPF6updateERKNS_3MatE(ptr noundef nonnull align 8 dereferenceable(312) %0, ptr noundef nonnull align 8 dereferenceable(96) %1) #4 align 2 {
  %3 = alloca ptr, align 8
  %4 = alloca ptr, align 8
  %5 = alloca %"class.cv::TrackingFunctionPF::TrackingHistogram", align 8
  store ptr %0, ptr %3, align 8, !tbaa !119
  store ptr %1, ptr %4, align 8, !tbaa !66
  %6 = load ptr, ptr %3, align 8
  %7 = load ptr, ptr %4, align 8, !tbaa !66
  %8 = getelementptr inbounds nuw %"class.cv::TrackingFunctionPF", ptr %6, i32 0, i32 1
  %9 = call noundef nonnull align 8 dereferenceable(96) ptr @_ZN2cv3MataSERKS0_(ptr noundef nonnull align 8 dereferenceable(96) %8, ptr noundef nonnull align 8 dereferenceable(96) %7)
  call void @llvm.lifetime.start.p0(i64 192, ptr %5) #3
  %10 = load ptr, ptr %4, align 8, !tbaa !66
  %11 = getelementptr inbounds nuw %"class.cv::TrackingFunctionPF", ptr %6, i32 0, i32 2
  %12 = load i32, ptr %11, align 8, !tbaa !121
  %13 = getelementptr inbounds nuw %"class.cv::TrackingFunctionPF", ptr %6, i32 0, i32 3
  %14 = load i32, ptr %13, align 4, !tbaa !126
  %15 = getelementptr inbounds nuw %"class.cv::TrackingFunctionPF", ptr %6, i32 0, i32 4
  %16 = load i32, ptr %15, align 8, !tbaa !127
  call void @_ZN2cv18TrackingFunctionPF17TrackingHistogramC1ERKNS_3MatEiii(ptr noundef nonnull align 8 dereferenceable(192) %5, ptr noundef nonnull align 8 dereferenceable(96) %10, i32 noundef %12, i32 noundef %14, i32 noundef %16)
  call void @_ZN2cv18TrackingFunctionPF17TrackingHistogramD2Ev(ptr noundef nonnull align 8 dereferenceable(192) %5) #3
  call void @llvm.lifetime.end.p0(i64 192, ptr %5) #3
  ret void
}