; Function Attrs: mustprogress uwtable
define hidden void @_ZN2cv18TrackingFunctionPF6updateERKNS_3MatE(ptr noundef nonnull align 8 dereferenceable(312) %0, ptr noundef nonnull align 8 dereferenceable(96) %1) local_unnamed_addr #3 align 2 {
  %3 = alloca %"class.cv::TrackingFunctionPF::TrackingHistogram", align 8
  %4 = getelementptr inbounds nuw i8, ptr %0, i64 8
  %5 = tail call noundef nonnull align 8 dereferenceable(96) ptr @_ZN2cv3MataSERKS0_(ptr noundef nonnull align 8 dereferenceable(96) %4, ptr noundef nonnull align 8 dereferenceable(96) %1)
  call void @llvm.lifetime.start.p0(i64 192, ptr nonnull %3) #30
  %6 = getelementptr inbounds nuw i8, ptr %0, i64 104
  %7 = load i32, ptr %6, align 8, !tbaa !133
  %8 = getelementptr inbounds nuw i8, ptr %0, i64 108
  %9 = load i32, ptr %8, align 4, !tbaa !138
  %10 = getelementptr inbounds nuw i8, ptr %0, i64 112
  %11 = load i32, ptr %10, align 8, !tbaa !139
  call void @_ZN2cv18TrackingFunctionPF17TrackingHistogramC2ERKNS_3MatEiii(ptr noundef nonnull align 8 dereferenceable(192) %3, ptr noundef nonnull align 8 dereferenceable(96) %1, i32 noundef %7, i32 noundef %9, i32 noundef %11)
  %12 = getelementptr inbounds nuw i8, ptr %3, i64 96
  call void @_ZN2cv3MatD2Ev(ptr noundef nonnull align 8 dereferenceable(96) %12) #30
  call void @_ZN2cv3MatD2Ev(ptr noundef nonnull align 8 dereferenceable(192) %3) #30
  call void @llvm.lifetime.end.p0(i64 192, ptr nonnull %3) #30
  ret void
}